target datalayout = "e-m:e-p270:32:32-p271:32:32-p272:64:64-i64:64-i128:128-f80:128-n8:16:32:64-S128"
target triple = "x86_64-pc-linux-gnu"

%struct.G723_1_Subframe = type { i32, i32, i32, i32, i32, i32, i32 }

; Function Attrs: alwaysinline nounwind willreturn memory(none) uwtable
define internal i32 @av_clipl_int32_c(i64 noundef %0) #2 {
  %2 = alloca i32, align 4
  %3 = alloca i64, align 8
  store i64 %0, ptr %3, align 8, !tbaa !30
  %4 = load i64, ptr %3, align 8, !tbaa !30
  %5 = add i64 %4, 2147483648
  %6 = and i64 %5, -4294967296
  %7 = icmp ne i64 %6, 0
  br i1 %7, label %8, label %13

8:                                                ; preds = %1
  %9 = load i64, ptr %3, align 8, !tbaa !30
  %10 = ashr i64 %9, 63
  %11 = xor i64 %10, 2147483647
  %12 = trunc i64 %11 to i32
  store i32 %12, ptr %2, align 4
  br label %16

13:                                               ; preds = %1
  %14 = load i64, ptr %3, align 8, !tbaa !30
  %15 = trunc i64 %14 to i32
  store i32 %15, ptr %2, align 4
  br label %16

16:                                               ; preds = %13, %8
  %17 = load i32, ptr %2, align 4
  ret i32 %17
}

; Function Attrs: alwaysinline nounwind uwtable
define internal i32 @av_sat_dadd32_c(i32 noundef %0, i32 noundef %1) #4 {
  %3 = alloca i32, align 4
  %4 = alloca i32, align 4
  store i32 %0, ptr %3, align 4, !tbaa !9
  store i32 %1, ptr %4, align 4, !tbaa !9
  %5 = load i32, ptr %3, align 4, !tbaa !9
  %6 = load i32, ptr %4, align 4, !tbaa !9
  %7 = load i32, ptr %4, align 4, !tbaa !9
  %8 = call i32 @av_sat_add32_c(i32 noundef %6, i32 noundef %7)
  %9 = call i32 @av_sat_add32_c(i32 noundef %5, i32 noundef %8)
  ret i32 %9
}

; Function Attrs: alwaysinline nounwind uwtable
define internal i32 @av_sat_add32_c(i32 noundef %0, i32 noundef %1) #4 {
  %3 = alloca i32, align 4
  %4 = alloca i32, align 4
  store i32 %0, ptr %3, align 4, !tbaa !9
  store i32 %1, ptr %4, align 4, !tbaa !9
  %5 = load i32, ptr %3, align 4, !tbaa !9
  %6 = sext i32 %5 to i64
  %7 = load i32, ptr %4, align 4, !tbaa !9
  %8 = sext i32 %7 to i64
  %9 = add nsw i64 %6, %8
  %10 = call i32 @av_clipl_int32_c(i64 noundef %9) #7
  ret i32 %10
}

; Function Attrs: nounwind uwtable
define void @ff_g723_1_get_residual(ptr noundef %0, ptr noundef %1, i32 noundef %2) #0 {
  %4 = alloca ptr, align 8
  %5 = alloca ptr, align 8
  %6 = alloca i32, align 4
  %7 = alloca i32, align 4
  %8 = alloca i32, align 4
  store ptr %0, ptr %4, align 8, !tbaa !4
  store ptr %1, ptr %5, align 8, !tbaa !4
  store i32 %2, ptr %6, align 4, !tbaa !9
  call void @llvm.lifetime.start.p0(i64 4, ptr %7) #6
  %9 = load i32, ptr %6, align 4, !tbaa !9
  %10 = sub nsw i32 143, %9
  store i32 %10, ptr %7, align 4, !tbaa !9
  call void @llvm.lifetime.start.p0(i64 4, ptr %8) #6
  %11 = load ptr, ptr %5, align 8, !tbaa !4
  %12 = load i32, ptr %7, align 4, !tbaa !9
  %13 = sext i32 %12 to i64
  %14 = getelementptr inbounds i16, ptr %11, i64 %13
  %15 = load i16, ptr %14, align 2, !tbaa !11
  %16 = load ptr, ptr %4, align 8, !tbaa !4
  %17 = getelementptr inbounds i16, ptr %16, i64 0
  store i16 %15, ptr %17, align 2, !tbaa !11
  %18 = load ptr, ptr %5, align 8, !tbaa !4
  %19 = load i32, ptr %7, align 4, !tbaa !9
  %20 = add nsw i32 %19, 1
  %21 = sext i32 %20 to i64
  %22 = getelementptr inbounds i16, ptr %18, i64 %21
  %23 = load i16, ptr %22, align 2, !tbaa !11
  %24 = load ptr, ptr %4, align 8, !tbaa !4
  %25 = getelementptr inbounds i16, ptr %24, i64 1
  store i16 %23, ptr %25, align 2, !tbaa !11
  %26 = load i32, ptr %7, align 4, !tbaa !9
  %27 = add nsw i32 %26, 2
  store i32 %27, ptr %7, align 4, !tbaa !9
  store i32 2, ptr %8, align 4, !tbaa !9
  br label %28

28:                                               ; preds = %46, %3
  %29 = load i32, ptr %8, align 4, !tbaa !9
  %30 = icmp slt i32 %29, 64
  br i1 %30, label %31, label %49

31:                                               ; preds = %28
  %32 = load ptr, ptr %5, align 8, !tbaa !4
  %33 = load i32, ptr %7, align 4, !tbaa !9
  %34 = load i32, ptr %8, align 4, !tbaa !9
  %35 = sub nsw i32 %34, 2
  %36 = load i32, ptr %6, align 4, !tbaa !9
  %37 = srem i32 %35, %36
  %38 = add nsw i32 %33, %37
  %39 = sext i32 %38 to i64
  %40 = getelementptr inbounds i16, ptr %32, i64 %39
  %41 = load i16, ptr %40, align 2, !tbaa !11
  %42 = load ptr, ptr %4, align 8, !tbaa !4
  %43 = load i32, ptr %8, align 4, !tbaa !9
  %44 = sext i32 %43 to i64
  %45 = getelementptr inbounds i16, ptr %42, i64 %44
  store i16 %41, ptr %45, align 2, !tbaa !11
  br label %46

46:                                               ; preds = %31
  %47 = load i32, ptr %8, align 4, !tbaa !9
  %48 = add nsw i32 %47, 1
  store i32 %48, ptr %8, align 4, !tbaa !9
  br label %28, !llvm.loop !17

49:                                               ; preds = %28
  call void @llvm.lifetime.end.p0(i64 4, ptr %8) #6
  call void @llvm.lifetime.end.p0(i64 4, ptr %7) #6
  ret void
}

; Function Attrs: nounwind uwtable
define void @ff_g723_1_gen_acb_excitation(ptr noundef %0, ptr noundef %1, i32 noundef %2, ptr noundef %3, i32 noundef %4) #0 {
  %6 = alloca ptr, align 8
  %7 = alloca ptr, align 8
  %8 = alloca i32, align 4
  %9 = alloca ptr, align 8
  %10 = alloca i32, align 4
  %11 = alloca [64 x i16], align 16
  %12 = alloca ptr, align 8
  %13 = alloca i32, align 4
  %14 = alloca i32, align 4
  %15 = alloca i32, align 4
  store ptr %0, ptr %6, align 8, !tbaa !4
  store ptr %1, ptr %7, align 8, !tbaa !4
  store i32 %2, ptr %8, align 4, !tbaa !9
  store ptr %3, ptr %9, align 8, !tbaa !20
  store i32 %4, ptr %10, align 4, !tbaa !9
  call void @llvm.lifetime.start.p0(i64 128, ptr %11) #6
  call void @llvm.lifetime.start.p0(i64 8, ptr %12) #6
  call void @llvm.lifetime.start.p0(i64 4, ptr %13) #6
  %16 = load i32, ptr %8, align 4, !tbaa !9
  %17 = load ptr, ptr %9, align 8, !tbaa !20
  %18 = getelementptr inbounds nuw %struct.G723_1_Subframe, ptr %17, i32 0, i32 0
  %19 = load i32, ptr %18, align 4, !tbaa !22
  %20 = add nsw i32 %16, %19
  %21 = sub nsw i32 %20, 1
  store i32 %21, ptr %13, align 4, !tbaa !9
  call void @llvm.lifetime.start.p0(i64 4, ptr %14) #6
  call void @llvm.lifetime.start.p0(i64 4, ptr %15) #6
  %22 = getelementptr inbounds [64 x i16], ptr %11, i64 0, i64 0
  %23 = load ptr, ptr %7, align 8, !tbaa !4
  %24 = load i32, ptr %13, align 4, !tbaa !9
  call void @ff_g723_1_get_residual(ptr noundef %22, ptr noundef %23, i32 noundef %24)
  %25 = load i32, ptr %10, align 4, !tbaa !9
  %26 = icmp eq i32 %25, 0
  br i1 %26, label %27, label %31

27:                                               ; preds = %5
  %28 = load i32, ptr %8, align 4, !tbaa !9
  %29 = icmp slt i32 %28, 58
  br i1 %29, label %30, label %31

30:                                               ; preds = %27
  store ptr @ff_g723_1_adaptive_cb_gain85, ptr %12, align 8, !tbaa !4
  br label %32

31:                                               ; preds = %27, %5
  store ptr @ff_g723_1_adaptive_cb_gain170, ptr %12, align 8, !tbaa !4
  br label %32

32:                                               ; preds = %31, %30
  %33 = load ptr, ptr %9, align 8, !tbaa !20
  %34 = getelementptr inbounds nuw %struct.G723_1_Subframe, ptr %33, i32 0, i32 1
  %35 = load i32, ptr %34, align 4, !tbaa !24
  %36 = mul nsw i32 %35, 20
  %37 = load ptr, ptr %12, align 8, !tbaa !4
  %38 = sext i32 %36 to i64
  %39 = getelementptr inbounds i16, ptr %37, i64 %38
  store ptr %39, ptr %12, align 8, !tbaa !4
  store i32 0, ptr %14, align 4, !tbaa !9
  br label %40

40:                                               ; preds = %61, %32
  %41 = load i32, ptr %14, align 4, !tbaa !9
  %42 = icmp slt i32 %41, 60
  br i1 %42, label %43, label %64

43:                                               ; preds = %40
  %44 = getelementptr inbounds [64 x i16], ptr %11, i64 0, i64 0
  %45 = load i32, ptr %14, align 4, !tbaa !9
  %46 = sext i32 %45 to i64
  %47 = getelementptr inbounds i16, ptr %44, i64 %46
  %48 = load ptr, ptr %12, align 8, !tbaa !4
  %49 = call i64 @ff_dot_product(ptr noundef %47, ptr noundef %48, i32 noundef 5)
  %50 = trunc i64 %49 to i32
  store i32 %50, ptr %15, align 4, !tbaa !9
  %51 = load i32, ptr %15, align 4, !tbaa !9
  %52 = load i32, ptr %15, align 4, !tbaa !9
  %53 = call i32 @av_sat_add32_c(i32 noundef %51, i32 noundef %52)
  %54 = call i32 @av_sat_dadd32_c(i32 noundef 32768, i32 noundef %53)
  %55 = ashr i32 %54, 16
  %56 = trunc i32 %55 to i16
  %57 = load ptr, ptr %6, align 8, !tbaa !4
  %58 = load i32, ptr %14, align 4, !tbaa !9
  %59 = sext i32 %58 to i64
  %60 = getelementptr inbounds i16, ptr %57, i64 %59
  store i16 %56, ptr %60, align 2, !tbaa !11
  br label %61

61:                                               ; preds = %43
  %62 = load i32, ptr %14, align 4, !tbaa !9
  %63 = add nsw i32 %62, 1
  store i32 %63, ptr %14, align 4, !tbaa !9
  br label %40, !llvm.loop !25

64:                                               ; preds = %40
  call void @llvm.lifetime.end.p0(i64 4, ptr %15) #6
  call void @llvm.lifetime.end.p0(i64 4, ptr %14) #6
  call void @llvm.lifetime.end.p0(i64 4, ptr %13) #6
  call void @llvm.lifetime.end.p0(i64 8, ptr %12) #6
  call void @llvm.lifetime.end.p0(i64 128, ptr %11) #6
  ret void
}