; Function Attrs: nounwind uwtable
define void @ff_g723_1_gen_acb_excitation(ptr noundef writeonly captures(none) %0, ptr noundef readonly captures(none) %1, i32 noundef %2, ptr noundef readonly captures(none) %3, i32 noundef %4) local_unnamed_addr #3 {
  %6 = alloca [64 x i16], align 16
  call void @llvm.lifetime.start.p0(i64 128, ptr nonnull %6) #7
  %7 = load i32, ptr %3, align 4, !tbaa !15
  %8 = add nsw i32 %7, %2
  %9 = add nsw i32 %8, -1
  %10 = sub nsw i32 144, %8
  %11 = sext i32 %10 to i64
  %12 = getelementptr inbounds i16, ptr %1, i64 %11
  %13 = load i16, ptr %12, align 2, !tbaa !4
  store i16 %13, ptr %6, align 16, !tbaa !4
  %14 = sub i32 145, %8
  %15 = sext i32 %14 to i64
  %16 = getelementptr inbounds i16, ptr %1, i64 %15
  %17 = load i16, ptr %16, align 2, !tbaa !4
  %18 = getelementptr inbounds nuw i8, ptr %6, i64 2
  store i16 %17, ptr %18, align 2, !tbaa !4
  br label %19

19:                                               ; preds = %19, %5
  %indvars.iv.i = phi i64 [ 2, %5 ], [ %indvars.iv.next.i, %19 ]
  %20 = trunc i64 %indvars.iv.i to i32
  %21 = add i32 %20, -2
  %22 = srem i32 %21, %9
  %reass.sub = sub i32 %22, %8
  %23 = add i32 %reass.sub, 146
  %24 = sext i32 %23 to i64
  %25 = getelementptr inbounds i16, ptr %1, i64 %24
  %26 = load i16, ptr %25, align 2, !tbaa !4
  %27 = getelementptr inbounds nuw i16, ptr %6, i64 %indvars.iv.i
  store i16 %26, ptr %27, align 2, !tbaa !4
  %indvars.iv.next.i = add nuw nsw i64 %indvars.iv.i, 1
  %exitcond.not.i = icmp eq i64 %indvars.iv.next.i, 64
  br i1 %exitcond.not.i, label %ff_g723_1_get_residual.exit, label %19, !llvm.loop !12

ff_g723_1_get_residual.exit:                      ; preds = %19
  %28 = icmp eq i32 %4, 0
  %29 = icmp slt i32 %2, 58
  %or.cond = and i1 %29, %28
  %ff_g723_1_adaptive_cb_gain85.ff_g723_1_adaptive_cb_gain170 = select i1 %or.cond, ptr @ff_g723_1_adaptive_cb_gain85, ptr @ff_g723_1_adaptive_cb_gain170
  %30 = getelementptr inbounds nuw i8, ptr %3, i64 4
  %31 = load i32, ptr %30, align 4, !tbaa !18
  %32 = mul nsw i32 %31, 20
  %33 = sext i32 %32 to i64
  %34 = getelementptr inbounds i16, ptr %ff_g723_1_adaptive_cb_gain85.ff_g723_1_adaptive_cb_gain170, i64 %33
  br label %35

35:                                               ; preds = %ff_g723_1_get_residual.exit, %35
  %indvars.iv = phi i64 [ 0, %ff_g723_1_get_residual.exit ], [ %indvars.iv.next, %35 ]
  %36 = getelementptr inbounds nuw i16, ptr %6, i64 %indvars.iv
  %37 = call i64 @ff_dot_product(ptr noundef nonnull %36, ptr noundef nonnull %34, i32 noundef 5) #7
  %sext = shl i64 %37, 32
  %38 = ashr exact i64 %sext, 31
  %39 = call i64 @llvm.smax.i64(i64 %38, i64 -2147483648)
  %40 = call i64 @llvm.smin.i64(i64 %39, i64 2147483647)
  %41 = shl nsw i64 %40, 1
  %42 = add nsw i64 %41, 2147483648
  %.not.i17 = icmp ult i64 %42, 4294967296
  %43 = icmp sgt i64 %38, -1
  %44 = select i1 %43, i64 2147483647, i64 2147483648
  %.0.i18 = select i1 %.not.i17, i64 %41, i64 %44
  %45 = and i64 %.0.i18, 4294934528
  %.not.i.not = icmp eq i64 %45, 2147450880
  %46 = trunc i64 %.0.i18 to i32
  %47 = add i32 %46, 32768
  %48 = lshr i32 %47, 16
  %49 = trunc nuw i32 %48 to i16
  %50 = select i1 %.not.i.not, i16 32767, i16 %49
  %51 = getelementptr inbounds nuw i16, ptr %0, i64 %indvars.iv
  store i16 %50, ptr %51, align 2, !tbaa !4
  %indvars.iv.next = add nuw nsw i64 %indvars.iv, 1
  %exitcond.not = icmp eq i64 %indvars.iv.next, 60
  br i1 %exitcond.not, label %52, label %35, !llvm.loop !19

52:                                               ; preds = %35
  call void @llvm.lifetime.end.p0(i64 128, ptr nonnull %6) #7
  ret void
}